target datalayout = "e-m:e-p270:32:32-p271:32:32-p272:64:64-i64:64-i128:128-f80:128-n8:16:32:64-S128"
target triple = "x86_64-pc-linux-gnu"

%struct.expert_field = type { i32, i32 }
%struct.tcpcl_dissect_ctx_t = type { ptr, ptr, i8, ptr, ptr, ptr }
%struct.tcpcl_peer_t = type { %struct._address, i32, i8, ptr, i8, i8, ptr, i16, i64, i64, ptr, i8, ptr, ptr }
%struct._address = type { i32, i32, ptr, ptr }

@tcpcl_chdr_missing = internal global i32 3, align 4
@ei_length_clamped = internal global %struct.expert_field zeroinitializer, align 4
@magic = internal constant [4 x i8] c"dtn!", align 1
@chdr_missing_v3first = internal constant [4 x ptr] [ptr @chdr_missing_tls, ptr @chdr_missing_v3, ptr @chdr_missing_v4, ptr null], align 16
@chdr_missing_v3only = internal constant [2 x ptr] [ptr @chdr_missing_v3, ptr null], align 16
@chdr_missing_v4first = internal constant [4 x ptr] [ptr @chdr_missing_tls, ptr @chdr_missing_v4, ptr @chdr_missing_v3, ptr null], align 16
@chdr_missing_v4only = internal constant [2 x ptr] [ptr @chdr_missing_v4, ptr null], align 16

; Function Attrs: null_pointer_is_valid sspstrong uwtable
define internal i32 @get_clamped_length(i64 noundef %0, ptr noundef %1, ptr noundef %2) #0 {
  %4 = alloca i64, align 8
  %5 = alloca ptr, align 8
  %6 = alloca ptr, align 8
  %7 = alloca i32, align 4
  store i64 %0, ptr %4, align 8
  store ptr %1, ptr %5, align 8
  store ptr %2, ptr %6, align 8
  call void @llvm.lifetime.start.p0(i64 4, ptr %7) #11
  %8 = load i64, ptr %4, align 8
  %9 = icmp ugt i64 %8, 2147483647
  br i1 %9, label %10, label %21

10:                                               ; preds = %3
  store i32 2147483647, ptr %7, align 4
  %11 = load ptr, ptr %5, align 8
  %12 = icmp ne ptr %11, null
  br i1 %12, label %13, label %20

13:                                               ; preds = %10
  %14 = load ptr, ptr %6, align 8
  %15 = icmp ne ptr %14, null
  br i1 %15, label %16, label %20

16:                                               ; preds = %13
  %17 = load ptr, ptr %5, align 8
  %18 = load ptr, ptr %6, align 8
  %19 = call ptr @expert_add_info(ptr noundef %17, ptr noundef %18, ptr noundef @ei_length_clamped)
  br label %20

20:                                               ; preds = %16, %13, %10
  br label %24

21:                                               ; preds = %3
  %22 = load i64, ptr %4, align 8
  %23 = trunc i64 %22 to i32
  store i32 %23, ptr %7, align 4
  br label %24

24:                                               ; preds = %21, %20
  %25 = load i32, ptr %7, align 4
  call void @llvm.lifetime.end.p0(i64 4, ptr %7) #11
  ret i32 %25
}

; Function Attrs: null_pointer_is_valid sspstrong uwtable
define internal i32 @tvb_get_sdnv(ptr noundef %0, i32 noundef %1, ptr noundef %2) #0 {
  %4 = alloca ptr, align 8
  %5 = alloca i32, align 4
  %6 = alloca ptr, align 8
  store ptr %0, ptr %4, align 8
  store i32 %1, ptr %5, align 4
  store ptr %2, ptr %6, align 8
  %7 = load ptr, ptr %4, align 8
  %8 = load i32, ptr %5, align 4
  %9 = load ptr, ptr %6, align 8
  %10 = call i32 @tvb_get_varint(ptr noundef %7, i32 noundef %8, i32 noundef 10, ptr noundef %9, i32 noundef 16)
  ret i32 %10
}

; Function Attrs: null_pointer_is_valid sspstrong uwtable
define internal i32 @get_message_len(ptr noundef %0, ptr noundef %1, i32 noundef %2, ptr noundef %3) #0 {
  %5 = alloca i32, align 4
  %6 = alloca ptr, align 8
  %7 = alloca ptr, align 8
  %8 = alloca i32, align 4
  %9 = alloca ptr, align 8
  %10 = alloca ptr, align 8
  %11 = alloca i32, align 4
  %12 = alloca i32, align 4
  %13 = alloca i32, align 4
  %14 = alloca ptr, align 8
  %15 = alloca ptr, align 8
  %16 = alloca i32, align 4
  %17 = alloca i32, align 4
  %18 = alloca i8, align 1
  %19 = alloca i64, align 8
  %20 = alloca i32, align 4
  %21 = alloca i32, align 4
  %22 = alloca i32, align 4
  %23 = alloca i32, align 4
  %24 = alloca i32, align 4
  store ptr %0, ptr %6, align 8
  store ptr %1, ptr %7, align 8
  store i32 %2, ptr %8, align 4
  store ptr %3, ptr %9, align 8
  call void @llvm.lifetime.start.p0(i64 8, ptr %10) #11
  %25 = load ptr, ptr %7, align 8
  %26 = load ptr, ptr %6, align 8
  %27 = load i32, ptr %8, align 4
  %28 = call ptr @tcpcl_dissect_ctx_get(ptr noundef %25, ptr noundef %26, i32 noundef %27)
  store ptr %28, ptr %10, align 8
  %29 = load ptr, ptr %10, align 8
  %30 = icmp ne ptr %29, null
  br i1 %30, label %32, label %31

31:                                               ; preds = %4
  store i32 0, ptr %5, align 4
  store i32 1, ptr %11, align 4
  br label %190

32:                                               ; preds = %4
  call void @llvm.lifetime.start.p0(i64 4, ptr %12) #11
  %33 = load i32, ptr %8, align 4
  store i32 %33, ptr %12, align 4
  call void @llvm.lifetime.start.p0(i64 4, ptr %13) #11
  %34 = load i32, ptr %8, align 4
  store i32 %34, ptr %13, align 4
  %35 = load ptr, ptr %10, align 8
  %36 = getelementptr inbounds nuw %struct.tcpcl_dissect_ctx_t, ptr %35, i32 0, i32 2
  %37 = load i8, ptr %36, align 8, !range !6, !noundef !7
  %38 = trunc i8 %37 to i1
  br i1 %38, label %39, label %133

39:                                               ; preds = %32
  %40 = load ptr, ptr %7, align 8
  %41 = load i32, ptr %13, align 4
  %42 = call i32 @tvb_memeql(ptr noundef %40, i32 noundef %41, ptr noundef @magic, i64 noundef 4)
  %43 = icmp ne i32 %42, 0
  br i1 %43, label %44, label %94

44:                                               ; preds = %39
  call void @llvm.lifetime.start.p0(i64 8, ptr %14) #11
  store ptr null, ptr %14, align 8
  %45 = load i32, ptr @tcpcl_chdr_missing, align 4
  switch i32 %45, label %50 [
    i32 1, label %46
    i32 2, label %47
    i32 3, label %48
    i32 4, label %49
  ]

46:                                               ; preds = %44
  store ptr @chdr_missing_v3first, ptr %14, align 8
  br label %50

47:                                               ; preds = %44
  store ptr @chdr_missing_v3only, ptr %14, align 8
  br label %50

48:                                               ; preds = %44
  store ptr @chdr_missing_v4first, ptr %14, align 8
  br label %50

49:                                               ; preds = %44
  store ptr @chdr_missing_v4only, ptr %14, align 8
  br label %50

50:                                               ; preds = %44, %49, %48, %47, %46
  %51 = load ptr, ptr %14, align 8
  %52 = icmp ne ptr %51, null
  br i1 %52, label %53, label %82

53:                                               ; preds = %50
  call void @llvm.lifetime.start.p0(i64 8, ptr %15) #11
  %54 = load ptr, ptr %14, align 8
  store ptr %54, ptr %15, align 8
  br label %55

55:                                               ; preds = %76, %53
  %56 = load ptr, ptr %15, align 8
  %57 = load ptr, ptr %56, align 8
  %58 = icmp ne ptr %57, null
  br i1 %58, label %60, label %59

59:                                               ; preds = %55
  store i32 3, ptr %11, align 4
  br label %79

60:                                               ; preds = %55
  call void @llvm.lifetime.start.p0(i64 4, ptr %16) #11
  %61 = load ptr, ptr %15, align 8
  %62 = load ptr, ptr %61, align 8
  %63 = load ptr, ptr %6, align 8
  %64 = load ptr, ptr %7, align 8
  %65 = load i32, ptr %13, align 4
  %66 = load ptr, ptr %10, align 8
  %67 = call i32 %62(ptr noundef %63, ptr noundef %64, i32 noundef %65, ptr noundef %66)
  store i32 %67, ptr %16, align 4
  %68 = load i32, ptr %16, align 4
  %69 = icmp ugt i32 %68, 0
  br i1 %69, label %70, label %72

70:                                               ; preds = %60
  %71 = load i32, ptr %16, align 4
  store i32 %71, ptr %5, align 4
  store i32 1, ptr %11, align 4
  br label %73

72:                                               ; preds = %60
  store i32 0, ptr %11, align 4
  br label %73

73:                                               ; preds = %72, %70
  call void @llvm.lifetime.end.p0(i64 4, ptr %16) #11
  %74 = load i32, ptr %11, align 4
  switch i32 %74, label %79 [
    i32 0, label %75
  ]

75:                                               ; preds = %73
  br label %76

76:                                               ; preds = %75
  %77 = load ptr, ptr %15, align 8
  %78 = getelementptr ptr, ptr %77, i32 1
  store ptr %78, ptr %15, align 8
  br label %55, !llvm.loop !10

79:                                               ; preds = %73, %59
  call void @llvm.lifetime.end.p0(i64 8, ptr %15) #11
  %80 = load i32, ptr %11, align 4
  switch i32 %80, label %93 [
    i32 3, label %81
  ]

81:                                               ; preds = %79
  store i32 0, ptr %5, align 4
  store i32 1, ptr %11, align 4
  br label %93

82:                                               ; preds = %50
  call void @llvm.lifetime.start.p0(i64 4, ptr %17) #11
  %83 = load ptr, ptr %7, align 8
  %84 = call i32 @tvb_captured_length(ptr noundef %83)
  %85 = load i32, ptr %13, align 4
  %86 = sub i32 %84, %85
  store i32 %86, ptr %17, align 4
  %87 = load i32, ptr %17, align 4
  %88 = zext i32 %87 to i64
  %89 = icmp ult i64 %88, 5
  br i1 %89, label %90, label %91

90:                                               ; preds = %82
  store i32 268435455, ptr %5, align 4
  store i32 1, ptr %11, align 4
  br label %92

91:                                               ; preds = %82
  store i32 0, ptr %5, align 4
  store i32 1, ptr %11, align 4
  br label %92

92:                                               ; preds = %91, %90
  call void @llvm.lifetime.end.p0(i64 4, ptr %17) #11
  br label %93

93:                                               ; preds = %92, %81, %79
  call void @llvm.lifetime.end.p0(i64 8, ptr %14) #11
  br label %189

94:                                               ; preds = %39
  %95 = load i32, ptr %13, align 4
  %96 = zext i32 %95 to i64
  %97 = add i64 %96, 4
  %98 = trunc i64 %97 to i32
  store i32 %98, ptr %13, align 4
  call void @llvm.lifetime.start.p0(i64 1, ptr %18) #11
  %99 = load ptr, ptr %7, align 8
  %100 = load i32, ptr %13, align 4
  %101 = call zeroext i8 @tvb_get_uint8(ptr noundef %99, i32 noundef %100)
  store i8 %101, ptr %18, align 1
  %102 = load i32, ptr %13, align 4
  %103 = add i32 %102, 1
  store i32 %103, ptr %13, align 4
  %104 = load i8, ptr %18, align 1
  %105 = zext i8 %104 to i32
  %106 = icmp eq i32 %105, 3
  br i1 %106, label %107, label %120

107:                                              ; preds = %94
  %108 = load i32, ptr %13, align 4
  %109 = add i32 %108, 3
  store i32 %109, ptr %13, align 4
  call void @llvm.lifetime.start.p0(i64 8, ptr %19) #11
  call void @llvm.lifetime.start.p0(i64 4, ptr %20) #11
  %110 = load ptr, ptr %7, align 8
  %111 = load i32, ptr %13, align 4
  %112 = call i32 @tvb_get_sdnv(ptr noundef %110, i32 noundef %111, ptr noundef %19)
  store i32 %112, ptr %20, align 4
  call void @llvm.lifetime.start.p0(i64 4, ptr %21) #11
  %113 = load i64, ptr %19, align 8
  %114 = call i32 @get_clamped_length(i64 noundef %113, ptr noundef null, ptr noundef null)
  store i32 %114, ptr %21, align 4
  %115 = load i32, ptr %20, align 4
  %116 = load i32, ptr %21, align 4
  %117 = add i32 %115, %116
  %118 = load i32, ptr %13, align 4
  %119 = add i32 %118, %117
  store i32 %119, ptr %13, align 4
  call void @llvm.lifetime.end.p0(i64 4, ptr %21) #11
  call void @llvm.lifetime.end.p0(i64 4, ptr %20) #11
  call void @llvm.lifetime.end.p0(i64 8, ptr %19) #11
  br label %129

120:                                              ; preds = %94
  %121 = load i8, ptr %18, align 1
  %122 = zext i8 %121 to i32
  %123 = icmp eq i32 %122, 4
  br i1 %123, label %124, label %127

124:                                              ; preds = %120
  %125 = load i32, ptr %13, align 4
  %126 = add i32 %125, 1
  store i32 %126, ptr %13, align 4
  br label %128

127:                                              ; preds = %120
  store i32 0, ptr %5, align 4
  store i32 1, ptr %11, align 4
  br label %130

128:                                              ; preds = %124
  br label %129

129:                                              ; preds = %128, %107
  store i32 0, ptr %11, align 4
  br label %130

130:                                              ; preds = %129, %127
  call void @llvm.lifetime.end.p0(i64 1, ptr %18) #11
  %131 = load i32, ptr %11, align 4
  switch i32 %131, label %189 [
    i32 0, label %132
  ]

132:                                              ; preds = %130
  br label %184

133:                                              ; preds = %32
  %134 = load ptr, ptr %10, align 8
  %135 = getelementptr inbounds nuw %struct.tcpcl_dissect_ctx_t, ptr %134, i32 0, i32 3
  %136 = load ptr, ptr %135, align 8
  %137 = getelementptr inbounds nuw %struct.tcpcl_peer_t, ptr %136, i32 0, i32 4
  %138 = load i8, ptr %137, align 8
  %139 = zext i8 %138 to i32
  %140 = icmp eq i32 %139, 3
  br i1 %140, label %141, label %157

141:                                              ; preds = %133
  call void @llvm.lifetime.start.p0(i64 4, ptr %22) #11
  %142 = load ptr, ptr %6, align 8
  %143 = load ptr, ptr %7, align 8
  %144 = load i32, ptr %13, align 4
  %145 = load ptr, ptr %10, align 8
  %146 = call i32 @get_v3_msg_len(ptr noundef %142, ptr noundef %143, i32 noundef %144, ptr noundef %145)
  store i32 %146, ptr %22, align 4
  %147 = load i32, ptr %22, align 4
  %148 = icmp eq i32 %147, 0
  br i1 %148, label %149, label %150

149:                                              ; preds = %141
  store i32 0, ptr %5, align 4
  store i32 1, ptr %11, align 4
  br label %154

150:                                              ; preds = %141
  %151 = load i32, ptr %22, align 4
  %152 = load i32, ptr %13, align 4
  %153 = add i32 %152, %151
  store i32 %153, ptr %13, align 4
  store i32 0, ptr %11, align 4
  br label %154

154:                                              ; preds = %150, %149
  call void @llvm.lifetime.end.p0(i64 4, ptr %22) #11
  %155 = load i32, ptr %11, align 4
  switch i32 %155, label %189 [
    i32 0, label %156
  ]

156:                                              ; preds = %154
  br label %183

157:                                              ; preds = %133
  %158 = load ptr, ptr %10, align 8
  %159 = getelementptr inbounds nuw %struct.tcpcl_dissect_ctx_t, ptr %158, i32 0, i32 3
  %160 = load ptr, ptr %159, align 8
  %161 = getelementptr inbounds nuw %struct.tcpcl_peer_t, ptr %160, i32 0, i32 4
  %162 = load i8, ptr %161, align 8
  %163 = zext i8 %162 to i32
  %164 = icmp eq i32 %163, 4
  br i1 %164, label %165, label %181

165:                                              ; preds = %157
  call void @llvm.lifetime.start.p0(i64 4, ptr %23) #11
  %166 = load ptr, ptr %6, align 8
  %167 = load ptr, ptr %7, align 8
  %168 = load i32, ptr %13, align 4
  %169 = load ptr, ptr %10, align 8
  %170 = call i32 @get_v4_msg_len(ptr noundef %166, ptr noundef %167, i32 noundef %168, ptr noundef %169)
  store i32 %170, ptr %23, align 4
  %171 = load i32, ptr %23, align 4
  %172 = icmp eq i32 %171, 0
  br i1 %172, label %173, label %174

173:                                              ; preds = %165
  store i32 0, ptr %5, align 4
  store i32 1, ptr %11, align 4
  br label %178

174:                                              ; preds = %165
  %175 = load i32, ptr %23, align 4
  %176 = load i32, ptr %13, align 4
  %177 = add i32 %176, %175
  store i32 %177, ptr %13, align 4
  store i32 0, ptr %11, align 4
  br label %178

178:                                              ; preds = %174, %173
  call void @llvm.lifetime.end.p0(i64 4, ptr %23) #11
  %179 = load i32, ptr %11, align 4
  switch i32 %179, label %189 [
    i32 0, label %180
  ]

180:                                              ; preds = %178
  br label %182

181:                                              ; preds = %157
  store i32 0, ptr %5, align 4
  store i32 1, ptr %11, align 4
  br label %189

182:                                              ; preds = %180
  br label %183

183:                                              ; preds = %182, %156
  br label %184

184:                                              ; preds = %183, %132
  call void @llvm.lifetime.start.p0(i64 4, ptr %24) #11
  %185 = load i32, ptr %13, align 4
  %186 = load i32, ptr %12, align 4
  %187 = sub i32 %185, %186
  store i32 %187, ptr %24, align 4
  %188 = load i32, ptr %24, align 4
  store i32 %188, ptr %5, align 4
  store i32 1, ptr %11, align 4
  call void @llvm.lifetime.end.p0(i64 4, ptr %24) #11
  br label %189

189:                                              ; preds = %184, %181, %178, %154, %130, %93
  call void @llvm.lifetime.end.p0(i64 4, ptr %13) #11
  call void @llvm.lifetime.end.p0(i64 4, ptr %12) #11
  br label %190

190:                                              ; preds = %189, %31
  call void @llvm.lifetime.end.p0(i64 8, ptr %10) #11
  %191 = load i32, ptr %5, align 4
  ret i32 %191
}