; Function Attrs: null_pointer_is_valid sspstrong uwtable
define internal i32 @get_message_len(ptr noundef %0, ptr noundef %1, i32 noundef %2, ptr readnone captures(none) %3) #0 {
  %5 = alloca i64, align 8
  %6 = tail call ptr @tcpcl_dissect_ctx_get(ptr noundef %1, ptr noundef %0, i32 noundef %2)
  %.not = icmp eq ptr %6, null
  br i1 %.not, label %.loopexit, label %7

7:                                                ; preds = %4
  %8 = getelementptr inbounds nuw i8, ptr %6, i64 16
  %9 = load i8, ptr %8, align 8, !range !8, !noundef !9
  %10 = trunc nuw i8 %9 to i1
  br i1 %10, label %11, label %37

11:                                               ; preds = %7
  %12 = tail call i32 @tvb_memeql(ptr noundef %1, i32 noundef %2, ptr noundef nonnull @magic, i64 noundef 4)
  %.not85 = icmp eq i32 %12, 0
  br i1 %.not85, label %27, label %13

13:                                               ; preds = %11
  %14 = load i32, ptr @tcpcl_chdr_missing, align 4
  %switch.tableidx = add i32 %14, -1
  %15 = icmp ult i32 %switch.tableidx, 4
  br i1 %15, label %switch.lookup, label %23

switch.lookup:                                    ; preds = %13
  %16 = zext nneg i32 %switch.tableidx to i64
  %switch.gep = getelementptr inbounds nuw [4 x ptr], ptr @switch.table.get_message_len, i64 0, i64 %16
  %switch.load = load ptr, ptr %switch.gep, align 8
  %17 = load ptr, ptr %switch.load, align 16
  %.not8796 = icmp eq ptr %17, null
  br i1 %.not8796, label %.loopexit, label %.lr.ph

18:                                               ; preds = %.lr.ph
  %19 = getelementptr i8, ptr %.07597, i64 8
  %20 = load ptr, ptr %19, align 8
  %.not87 = icmp eq ptr %20, null
  br i1 %.not87, label %.loopexit, label %.lr.ph, !llvm.loop !10

.lr.ph:                                           ; preds = %switch.lookup, %18
  %21 = phi ptr [ %20, %18 ], [ %17, %switch.lookup ]
  %.07597 = phi ptr [ %19, %18 ], [ %switch.load, %switch.lookup ]
  %22 = tail call i32 %21(ptr noundef %0, ptr noundef %1, i32 noundef %2, ptr noundef nonnull %6)
  %.not88 = icmp eq i32 %22, 0
  br i1 %.not88, label %18, label %.loopexit

23:                                               ; preds = %13
  %24 = tail call i32 @tvb_captured_length(ptr noundef %1)
  %25 = sub i32 %24, %2
  %26 = icmp ult i32 %25, 5
  %. = select i1 %26, i32 268435455, i32 0
  br label %.loopexit

27:                                               ; preds = %11
  %28 = add i32 %2, 4
  %29 = tail call zeroext i8 @tvb_get_uint8(ptr noundef %1, i32 noundef %28)
  switch i8 %29, label %.loopexit [
    i8 3, label %get_clamped_length.exit
    i8 4, label %35
  ]

get_clamped_length.exit:                          ; preds = %27
  %30 = add i32 %2, 8
  call void @llvm.lifetime.start.p0(i64 8, ptr nonnull %5) #14
  %31 = call i32 @tvb_get_varint(ptr noundef %1, i32 noundef %30, i32 noundef 10, ptr noundef nonnull %5, i32 noundef 16)
  %32 = load i64, ptr %5, align 8
  %spec.select9495 = call i64 @llvm.umin.i64(i64 %32, i64 2147483647)
  %spec.select94 = trunc nuw nsw i64 %spec.select9495 to i32
  %33 = add i32 %31, %30
  %34 = add i32 %33, %spec.select94
  call void @llvm.lifetime.end.p0(i64 8, ptr nonnull %5) #14
  br label %.thread91

35:                                               ; preds = %27
  %36 = add i32 %2, 6
  br label %.thread91

37:                                               ; preds = %7
  %38 = getelementptr inbounds nuw i8, ptr %6, i64 24
  %39 = load ptr, ptr %38, align 8
  %40 = getelementptr inbounds nuw i8, ptr %39, i64 40
  %41 = load i8, ptr %40, align 8
  switch i8 %41, label %.loopexit [
    i8 3, label %42
    i8 4, label %45
  ]

42:                                               ; preds = %37
  %43 = tail call fastcc i32 @get_v3_msg_len(ptr noundef %1, i32 noundef %2)
  %.not84 = icmp eq i32 %43, 0
  %44 = add i32 %43, %2
  br i1 %.not84, label %.loopexit, label %.thread91

45:                                               ; preds = %37
  %46 = tail call fastcc i32 @get_v4_msg_len(ptr noundef %1, i32 noundef %2)
  %.not83 = icmp eq i32 %46, 0
  %47 = add i32 %46, %2
  br i1 %.not83, label %.loopexit, label %.thread91

.thread91:                                        ; preds = %get_clamped_length.exit, %35, %42, %45
  %.271 = phi i32 [ %44, %42 ], [ %47, %45 ], [ %36, %35 ], [ %34, %get_clamped_length.exit ]
  %48 = sub i32 %.271, %2
  br label %.loopexit

.loopexit:                                        ; preds = %18, %.lr.ph, %switch.lookup, %27, %.thread91, %45, %42, %23, %37, %4
  %.0 = phi i32 [ 0, %4 ], [ %48, %.thread91 ], [ 0, %42 ], [ 0, %45 ], [ %., %23 ], [ 0, %37 ], [ 0, %27 ], [ 0, %switch.lookup ], [ 0, %18 ], [ %22, %.lr.ph ]
  ret i32 %.0
}